target datalayout = "e-m:e-p270:32:32-p271:32:32-p272:64:64-i64:64-i128:128-f80:128-n8:16:32:64-S128"
target triple = "x86_64-pc-linux-gnu"

; Function Attrs: nounwind uwtable
define hidden i64 @luaV_shiftl(i64 noundef %0, i64 noundef %1) #0 {
  %3 = alloca i64, align 8
  %4 = alloca i64, align 8
  %5 = alloca i64, align 8
  store i64 %0, ptr %4, align 8, !tbaa !30
  store i64 %1, ptr %5, align 8, !tbaa !30
  %6 = load i64, ptr %5, align 8, !tbaa !30
  %7 = icmp slt i64 %6, 0
  br i1 %7, label %8, label %17

8:                                                ; preds = %2
  %9 = load i64, ptr %5, align 8, !tbaa !30
  %10 = icmp sle i64 %9, -64
  br i1 %10, label %11, label %12

11:                                               ; preds = %8
  store i64 0, ptr %3, align 8
  br label %25

12:                                               ; preds = %8
  %13 = load i64, ptr %4, align 8, !tbaa !30
  %14 = load i64, ptr %5, align 8, !tbaa !30
  %15 = sub nsw i64 0, %14
  %16 = lshr i64 %13, %15
  store i64 %16, ptr %3, align 8
  br label %25

17:                                               ; preds = %2
  %18 = load i64, ptr %5, align 8, !tbaa !30
  %19 = icmp sge i64 %18, 64
  br i1 %19, label %20, label %21

20:                                               ; preds = %17
  store i64 0, ptr %3, align 8
  br label %25

21:                                               ; preds = %17
  %22 = load i64, ptr %4, align 8, !tbaa !30
  %23 = load i64, ptr %5, align 8, !tbaa !30
  %24 = shl i64 %22, %23
  store i64 %24, ptr %3, align 8
  br label %25

25:                                               ; preds = %21, %20, %12, %11
  %26 = load i64, ptr %3, align 8
  ret i64 %26
}