; Function Attrs: mustprogress nofree norecurse nosync nounwind willreturn memory(none) uwtable
define hidden i64 @luaV_shiftl(i64 noundef %0, i64 noundef %1) local_unnamed_addr #10 {
  %3 = icmp slt i64 %1, 0
  br i1 %3, label %4, label %9

4:                                                ; preds = %2
  %5 = icmp samesign ult i64 %1, -63
  br i1 %5, label %12, label %6

6:                                                ; preds = %4
  %7 = sub nsw i64 0, %1
  %8 = lshr i64 %0, %7
  br label %12

9:                                                ; preds = %2
  %10 = icmp samesign ugt i64 %1, 63
  %11 = shl i64 %0, %1
  %spec.select = select i1 %10, i64 0, i64 %11
  br label %12

12:                                               ; preds = %9, %4, %6
  %.0 = phi i64 [ %8, %6 ], [ 0, %4 ], [ %spec.select, %9 ]
  ret i64 %.0
}